; Function Attrs: mustprogress ssp uwtable
define noundef zeroext i1 @_ZN6open3d4core3nns21NearestNeighborSearch16FixedRadiusIndexENS_7utility8optionalIdEE(ptr noundef nonnull align 8 dereferenceable(216) %0, ptr noundef readonly captures(none) %1) local_unnamed_addr #4 align 2 personality ptr @__gxx_personality_v0 {
  %3 = getelementptr inbounds nuw i8, ptr %0, i64 24
  %4 = load ptr, ptr %3, align 8, !tbaa !4
  %5 = getelementptr inbounds nuw i8, ptr %4, i64 16
  %6 = load ptr, ptr %5, align 8
  %7 = tail call i64 %6(ptr noundef nonnull align 8 dereferenceable(8) %3)
  %8 = and i64 %7, 4294967295
  %9 = icmp eq i64 %8, 1
  br i1 %9, label %10, label %15

10:                                               ; preds = %2
  %11 = load i8, ptr %1, align 8, !tbaa !35, !range !38, !noundef !39
  %12 = trunc nuw i8 %11 to i1
  br i1 %12, label %14, label %13

13:                                               ; preds = %10
  tail call void @_ZN6open3d7utility6Logger9LogError_IJEEEvPKciS4_S4_DpOT_(ptr noundef nonnull @.str, i32 noundef 43, ptr noundef nonnull @__PRETTY_FUNCTION__._ZN6open3d4core3nns21NearestNeighborSearch16FixedRadiusIndexENS_7utility8optionalIdEE, ptr noundef nonnull @.str.3) #17
  unreachable

14:                                               ; preds = %10
  tail call void @_ZN6open3d7utility6Logger9LogError_IJEEEvPKciS4_S4_DpOT_(ptr noundef nonnull @.str, i32 noundef 52, ptr noundef nonnull @__PRETTY_FUNCTION__._ZN6open3d4core3nns21NearestNeighborSearch16FixedRadiusIndexENS_7utility8optionalIdEE, ptr noundef nonnull @.str.4) #17
  unreachable

15:                                               ; preds = %2
  %16 = tail call noalias noundef nonnull dereferenceable(208) ptr @_Znwm(i64 noundef 208) #15
  invoke void @_ZN6open3d4core3nns14NanoFlannIndexC1Ev(ptr noundef nonnull align 8 dereferenceable(208) %16)
          to label %17 unwind label %22

17:                                               ; preds = %15
  %18 = load ptr, ptr %0, align 8, !tbaa !25
  store ptr %16, ptr %0, align 8, !tbaa !25
  %.not.i.i.i = icmp eq ptr %18, null
  br i1 %.not.i.i.i, label %_ZN6open3d4core3nns21NearestNeighborSearch8SetIndexEv.exit, label %_ZNKSt14default_deleteIN6open3d4core3nns14NanoFlannIndexEEclEPS3_.exit.i.i.i

_ZNKSt14default_deleteIN6open3d4core3nns14NanoFlannIndexEEclEPS3_.exit.i.i.i: ; preds = %17
  %19 = load ptr, ptr %18, align 8, !tbaa !4
  %20 = getelementptr inbounds nuw i8, ptr %19, i64 8
  %21 = load ptr, ptr %20, align 8
  tail call void %21(ptr noundef nonnull align 8 dereferenceable(208) %18) #14
  %.pre.i = load ptr, ptr %0, align 8, !tbaa !25
  br label %_ZN6open3d4core3nns21NearestNeighborSearch8SetIndexEv.exit

22:                                               ; preds = %15
  %23 = landingpad { ptr, i32 }
          cleanup
  tail call void @_ZdlPvm(ptr noundef nonnull %16, i64 noundef 208) #16
  resume { ptr, i32 } %23

_ZN6open3d4core3nns21NearestNeighborSearch8SetIndexEv.exit: ; preds = %17, %_ZNKSt14default_deleteIN6open3d4core3nns14NanoFlannIndexEEclEPS3_.exit.i.i.i
  %24 = phi ptr [ %16, %17 ], [ %.pre.i, %_ZNKSt14default_deleteIN6open3d4core3nns14NanoFlannIndexEEclEPS3_.exit.i.i.i ]
  %25 = getelementptr inbounds nuw i8, ptr %0, i64 184
  %26 = load ptr, ptr %24, align 8, !tbaa !4
  %27 = getelementptr inbounds nuw i8, ptr %26, i64 16
  %28 = load ptr, ptr %27, align 8
  %29 = tail call noundef zeroext i1 %28(ptr noundef nonnull align 8 dereferenceable(208) %24, ptr noundef nonnull align 8 dereferenceable(160) %3, ptr noundef nonnull align 8 dereferenceable(32) %25)
  ret i1 %29
}